; ModuleID = 'source-C-CXX/41/282.cpp'
source_filename = "source-C-CXX/41/282.cpp"
target datalayout = "e-m:e-p270:32:32-p271:32:32-p272:64:64-i64:64-f80:128-n8:16:32:64-S128"
target triple = "x86_64-pc-linux-gnu"

%"class.std::ios_base::Init" = type { i8 }
%"class.std::basic_istream" = type { i32 (...)**, i64, %"class.std::basic_ios" }
%"class.std::basic_ios" = type { %"class.std::ios_base", %"class.std::basic_ostream"*, i8, i8, %"class.std::basic_streambuf"*, %"class.std::ctype"*, %"class.std::num_put"*, %"class.std::num_get"* }
%"class.std::ios_base" = type { i32 (...)**, i64, i64, i32, i32, i32, %"struct.std::ios_base::_Callback_list"*, %"struct.std::ios_base::_Words", [8 x %"struct.std::ios_base::_Words"], i32, %"struct.std::ios_base::_Words"*, %"class.std::locale" }
%"struct.std::ios_base::_Callback_list" = type { %"struct.std::ios_base::_Callback_list"*, void (i32, %"class.std::ios_base"*, i32)*, i32, i32 }
%"struct.std::ios_base::_Words" = type { i8*, i64 }
%"class.std::locale" = type { %"class.std::locale::_Impl"* }
%"class.std::locale::_Impl" = type { i32, %"class.std::locale::facet"**, i64, %"class.std::locale::facet"**, i8** }
%"class.std::locale::facet" = type <{ i32 (...)**, i32, [4 x i8] }>
%"class.std::basic_ostream" = type { i32 (...)**, %"class.std::basic_ios" }
%"class.std::basic_streambuf" = type { i32 (...)**, i8*, i8*, i8*, i8*, i8*, i8*, %"class.std::locale" }
%"class.std::ctype" = type <{ %"class.std::locale::facet.base", [4 x i8], %struct.__locale_struct*, i8, [7 x i8], i32*, i32*, i16*, i8, [256 x i8], [256 x i8], i8, [6 x i8] }>
%"class.std::locale::facet.base" = type <{ i32 (...)**, i32 }>
%struct.__locale_struct = type { [13 x %struct.__locale_data*], i16*, i32*, i32*, [13 x i8*] }
%struct.__locale_data = type opaque
%"class.std::num_put" = type { %"class.std::locale::facet.base", [4 x i8] }
%"class.std::num_get" = type { %"class.std::locale::facet.base", [4 x i8] }

@_ZStL8__ioinit = internal global %"class.std::ios_base::Init" zeroinitializer, align 1
@__dso_handle = external hidden global i8
@_ZSt3cin = external global %"class.std::basic_istream", align 8
@_ZSt4cout = external global %"class.std::basic_ostream", align 8
@llvm.global_ctors = appending global [1 x { i32, void ()*, i8* }] [{ i32, void ()*, i8* } { i32 65535, void ()* @_GLOBAL__sub_I_282.cpp, i8* null }]

declare void @_ZNSt8ios_base4InitC1Ev(%"class.std::ios_base::Init"* nonnull align 1 dereferenceable(1)) unnamed_addr #0

; Function Attrs: nounwind
declare void @_ZNSt8ios_base4InitD1Ev(%"class.std::ios_base::Init"* nonnull align 1 dereferenceable(1)) unnamed_addr #1

; Function Attrs: nofree nounwind
declare i32 @__cxa_atexit(void (i8*)*, i8*, i8*) local_unnamed_addr #2

; Function Attrs: mustprogress norecurse sspstrong uwtable
define dso_local i32 @main() local_unnamed_addr #3 {
  %1 = alloca i8, align 1
  %2 = alloca i32, align 4
  %3 = alloca i32, align 4
  %4 = alloca [100000 x i32], align 16
  %5 = bitcast i32* %2 to i8*
  call void @llvm.lifetime.start.p0i8(i64 4, i8* nonnull %5) #6
  %6 = bitcast i32* %3 to i8*
  call void @llvm.lifetime.start.p0i8(i64 4, i8* nonnull %6) #6
  %7 = call nonnull align 8 dereferenceable(16) %"class.std::basic_istream"* @_ZNSirsERi(%"class.std::basic_istream"* nonnull align 8 dereferenceable(16) @_ZSt3cin, i32* nonnull align 4 dereferenceable(4) %2)
  %8 = bitcast [100000 x i32]* %4 to i8*
  call void @llvm.lifetime.start.p0i8(i64 400000, i8* nonnull %8) #6
  %9 = load i32, i32* %2, align 4, !tbaa !5
  %10 = icmp sgt i32 %9, 0
  br i1 %10, label %11, label %19

11:                                               ; preds = %0, %11
  %12 = phi i64 [ %15, %11 ], [ 0, %0 ]
  %13 = getelementptr inbounds [100000 x i32], [100000 x i32]* %4, i64 0, i64 %12
  %14 = call nonnull align 8 dereferenceable(16) %"class.std::basic_istream"* @_ZNSirsERi(%"class.std::basic_istream"* nonnull align 8 dereferenceable(16) @_ZSt3cin, i32* nonnull align 4 dereferenceable(4) %13)
  %15 = add nuw nsw i64 %12, 1
  %16 = load i32, i32* %2, align 4, !tbaa !5
  %17 = sext i32 %16 to i64
  %18 = icmp slt i64 %15, %17
  br i1 %18, label %11, label %19, !llvm.loop !9

19:                                               ; preds = %11, %0
  %20 = call nonnull align 8 dereferenceable(16) %"class.std::basic_istream"* @_ZNSirsERi(%"class.std::basic_istream"* nonnull align 8 dereferenceable(16) @_ZSt3cin, i32* nonnull align 4 dereferenceable(4) %3)
  %21 = load i32, i32* %2, align 4, !tbaa !5
  %22 = load i32, i32* %3, align 4
  %23 = icmp sgt i32 %21, 0
  br i1 %23, label %31, label %24

24:                                               ; preds = %117, %19
  %25 = phi i32 [ 0, %19 ], [ %119, %117 ]
  %26 = xor i32 %25, -1
  %27 = add i32 %21, %26
  %28 = icmp sgt i32 %27, 0
  br i1 %28, label %123, label %29

29:                                               ; preds = %24
  %30 = sext i32 %27 to i64
  br label %134

31:                                               ; preds = %19, %117
  %32 = phi i32 [ %119, %117 ], [ 0, %19 ]
  %33 = phi i32 [ %120, %117 ], [ 0, %19 ]
  %34 = sext i32 %33 to i64
  %35 = getelementptr inbounds [100000 x i32], [100000 x i32]* %4, i64 0, i64 %34
  %36 = load i32, i32* %35, align 4, !tbaa !5
  %37 = icmp eq i32 %36, %22
  br i1 %37, label %38, label %117

38:                                               ; preds = %31
  %39 = xor i32 %32, -1
  %40 = add i32 %21, %39
  %41 = icmp slt i32 %33, %40
  br i1 %41, label %42, label %114

42:                                               ; preds = %38
  %43 = sext i32 %40 to i64
  %44 = sub nsw i64 %43, %34
  %45 = icmp ult i64 %44, 8
  br i1 %45, label %105, label %46

46:                                               ; preds = %42
  %47 = and i64 %44, -8
  %48 = add nsw i64 %47, %34
  %49 = add nsw i64 %47, -8
  %50 = lshr exact i64 %49, 3
  %51 = add nuw nsw i64 %50, 1
  %52 = and i64 %51, 1
  %53 = icmp eq i64 %49, 0
  br i1 %53, label %87, label %54

54:                                               ; preds = %46
  %55 = and i64 %51, 4611686018427387902
  br label %56

56:                                               ; preds = %56, %54
  %57 = phi i64 [ 0, %54 ], [ %84, %56 ]
  %58 = phi i64 [ %55, %54 ], [ %85, %56 ]
  %59 = add i64 %57, %34
  %60 = add nsw i64 %59, 1
  %61 = getelementptr inbounds [100000 x i32], [100000 x i32]* %4, i64 0, i64 %60
  %62 = bitcast i32* %61 to <4 x i32>*
  %63 = load <4 x i32>, <4 x i32>* %62, align 4, !tbaa !5
  %64 = getelementptr inbounds i32, i32* %61, i64 4
  %65 = bitcast i32* %64 to <4 x i32>*
  %66 = load <4 x i32>, <4 x i32>* %65, align 4, !tbaa !5
  %67 = getelementptr inbounds [100000 x i32], [100000 x i32]* %4, i64 0, i64 %59
  %68 = bitcast i32* %67 to <4 x i32>*
  store <4 x i32> %63, <4 x i32>* %68, align 4, !tbaa !5
  %69 = getelementptr inbounds i32, i32* %67, i64 4
  %70 = bitcast i32* %69 to <4 x i32>*
  store <4 x i32> %66, <4 x i32>* %70, align 4, !tbaa !5
  %71 = or i64 %57, 8
  %72 = add i64 %71, %34
  %73 = add nsw i64 %72, 1
  %74 = getelementptr inbounds [100000 x i32], [100000 x i32]* %4, i64 0, i64 %73
  %75 = bitcast i32* %74 to <4 x i32>*
  %76 = load <4 x i32>, <4 x i32>* %75, align 4, !tbaa !5
  %77 = getelementptr inbounds i32, i32* %74, i64 4
  %78 = bitcast i32* %77 to <4 x i32>*
  %79 = load <4 x i32>, <4 x i32>* %78, align 4, !tbaa !5
  %80 = getelementptr inbounds [100000 x i32], [100000 x i32]* %4, i64 0, i64 %72
  %81 = bitcast i32* %80 to <4 x i32>*
  store <4 x i32> %76, <4 x i32>* %81, align 4, !tbaa !5
  %82 = getelementptr inbounds i32, i32* %80, i64 4
  %83 = bitcast i32* %82 to <4 x i32>*
  store <4 x i32> %79, <4 x i32>* %83, align 4, !tbaa !5
  %84 = add nuw i64 %57, 16
  %85 = add i64 %58, -2
  %86 = icmp eq i64 %85, 0
  br i1 %86, label %87, label %56, !llvm.loop !11

87:                                               ; preds = %56, %46
  %88 = phi i64 [ 0, %46 ], [ %84, %56 ]
  %89 = icmp eq i64 %52, 0
  br i1 %89, label %103, label %90

90:                                               ; preds = %87
  %91 = add i64 %88, %34
  %92 = add nsw i64 %91, 1
  %93 = getelementptr inbounds [100000 x i32], [100000 x i32]* %4, i64 0, i64 %92
  %94 = bitcast i32* %93 to <4 x i32>*
  %95 = load <4 x i32>, <4 x i32>* %94, align 4, !tbaa !5
  %96 = getelementptr inbounds i32, i32* %93, i64 4
  %97 = bitcast i32* %96 to <4 x i32>*
  %98 = load <4 x i32>, <4 x i32>* %97, align 4, !tbaa !5
  %99 = getelementptr inbounds [100000 x i32], [100000 x i32]* %4, i64 0, i64 %91
  %100 = bitcast i32* %99 to <4 x i32>*
  store <4 x i32> %95, <4 x i32>* %100, align 4, !tbaa !5
  %101 = getelementptr inbounds i32, i32* %99, i64 4
  %102 = bitcast i32* %101 to <4 x i32>*
  store <4 x i32> %98, <4 x i32>* %102, align 4, !tbaa !5
  br label %103

103:                                              ; preds = %87, %90
  %104 = icmp eq i64 %44, %47
  br i1 %104, label %114, label %105

105:                                              ; preds = %42, %103
  %106 = phi i64 [ %34, %42 ], [ %48, %103 ]
  br label %107

107:                                              ; preds = %105, %107
  %108 = phi i64 [ %109, %107 ], [ %106, %105 ]
  %109 = add nsw i64 %108, 1
  %110 = getelementptr inbounds [100000 x i32], [100000 x i32]* %4, i64 0, i64 %109
  %111 = load i32, i32* %110, align 4, !tbaa !5
  %112 = getelementptr inbounds [100000 x i32], [100000 x i32]* %4, i64 0, i64 %108
  store i32 %111, i32* %112, align 4, !tbaa !5
  %113 = icmp eq i64 %109, %43
  br i1 %113, label %114, label %107, !llvm.loop !13

114:                                              ; preds = %107, %103, %38
  %115 = add nsw i32 %32, 1
  %116 = add nsw i32 %33, -1
  br label %117

117:                                              ; preds = %114, %31
  %118 = phi i32 [ %116, %114 ], [ %33, %31 ]
  %119 = phi i32 [ %115, %114 ], [ %32, %31 ]
  %120 = add nsw i32 %118, 1
  %121 = sub nsw i32 %21, %119
  %122 = icmp slt i32 %120, %121
  br i1 %122, label %31, label %24, !llvm.loop !15

123:                                              ; preds = %24, %123
  %124 = phi i64 [ %129, %123 ], [ 0, %24 ]
  %125 = getelementptr inbounds [100000 x i32], [100000 x i32]* %4, i64 0, i64 %124
  %126 = load i32, i32* %125, align 4, !tbaa !5
  %127 = call nonnull align 8 dereferenceable(8) %"class.std::basic_ostream"* @_ZNSolsEi(%"class.std::basic_ostream"* nonnull align 8 dereferenceable(8) @_ZSt4cout, i32 %126)
  call void @llvm.lifetime.start.p0i8(i64 1, i8* nonnull %1)
  store i8 32, i8* %1, align 1, !tbaa !16
  %128 = call nonnull align 8 dereferenceable(8) %"class.std::basic_ostream"* @_ZSt16__ostream_insertIcSt11char_traitsIcEERSt13basic_ostreamIT_T0_ES6_PKS3_l(%"class.std::basic_ostream"* nonnull align 8 dereferenceable(8) %127, i8* nonnull %1, i64 1)
  call void @llvm.lifetime.end.p0i8(i64 1, i8* nonnull %1)
  %129 = add nuw nsw i64 %124, 1
  %130 = load i32, i32* %2, align 4, !tbaa !5
  %131 = add i32 %130, %26
  %132 = sext i32 %131 to i64
  %133 = icmp slt i64 %129, %132
  br i1 %133, label %123, label %134, !llvm.loop !17

134:                                              ; preds = %123, %29
  %135 = phi i64 [ %30, %29 ], [ %132, %123 ]
  %136 = getelementptr inbounds [100000 x i32], [100000 x i32]* %4, i64 0, i64 %135
  %137 = load i32, i32* %136, align 4, !tbaa !5
  %138 = call nonnull align 8 dereferenceable(8) %"class.std::basic_ostream"* @_ZNSolsEi(%"class.std::basic_ostream"* nonnull align 8 dereferenceable(8) @_ZSt4cout, i32 %137)
  call void @llvm.lifetime.end.p0i8(i64 400000, i8* nonnull %8) #6
  call void @llvm.lifetime.end.p0i8(i64 4, i8* nonnull %6) #6
  call void @llvm.lifetime.end.p0i8(i64 4, i8* nonnull %5) #6
  ret i32 0
}

; Function Attrs: argmemonly mustprogress nofree nosync nounwind willreturn
declare void @llvm.lifetime.start.p0i8(i64 immarg, i8* nocapture) #4

declare nonnull align 8 dereferenceable(16) %"class.std::basic_istream"* @_ZNSirsERi(%"class.std::basic_istream"* nonnull align 8 dereferenceable(16), i32* nonnull align 4 dereferenceable(4)) local_unnamed_addr #0

declare nonnull align 8 dereferenceable(8) %"class.std::basic_ostream"* @_ZNSolsEi(%"class.std::basic_ostream"* nonnull align 8 dereferenceable(8), i32) local_unnamed_addr #0

; Function Attrs: argmemonly mustprogress nofree nosync nounwind willreturn
declare void @llvm.lifetime.end.p0i8(i64 immarg, i8* nocapture) #4

declare nonnull align 8 dereferenceable(8) %"class.std::basic_ostream"* @_ZSt16__ostream_insertIcSt11char_traitsIcEERSt13basic_ostreamIT_T0_ES6_PKS3_l(%"class.std::basic_ostream"* nonnull align 8 dereferenceable(8), i8*, i64) local_unnamed_addr #0

; Function Attrs: sspstrong uwtable
define internal void @_GLOBAL__sub_I_282.cpp() #5 section ".text.startup" {
  tail call void @_ZNSt8ios_base4InitC1Ev(%"class.std::ios_base::Init"* nonnull align 1 dereferenceable(1) @_ZStL8__ioinit)
  %1 = tail call i32 @__cxa_atexit(void (i8*)* bitcast (void (%"class.std::ios_base::Init"*)* @_ZNSt8ios_base4InitD1Ev to void (i8*)*), i8* getelementptr inbounds (%"class.std::ios_base::Init", %"class.std::ios_base::Init"* @_ZStL8__ioinit, i64 0, i32 0), i8* nonnull @__dso_handle) #6
  ret void
}


!llvm.module.flags = !{!0, !1, !2, !3}
!llvm.ident = !{!4}

!0 = !{i32 1, !"wchar_size", i32 4}
!1 = !{i32 7, !"PIC Level", i32 2}
!2 = !{i32 7, !"PIE Level", i32 2}
!3 = !{i32 7, !"uwtable", i32 1}
!4 = !{!"clang version 13.0.0"}
!5 = !{!6, !6, i64 0}
!6 = !{!"int", !7, i64 0}
!7 = !{!"omnipotent char", !8, i64 0}
!8 = !{!"Simple C++ TBAA"}
!9 = distinct !{!9, !10}
!10 = !{!"llvm.loop.mustprogress"}
!11 = distinct !{!11, !10, !12}
!12 = !{!"llvm.loop.isvectorized", i32 1}
!13 = distinct !{!13, !10, !14, !12}
!14 = !{!"llvm.loop.unroll.runtime.disable"}
!15 = distinct !{!15, !10}
!16 = !{!7, !7, i64 0}
!17 = distinct !{!17, !10}
